target datalayout = "e-m:e-p270:32:32-p271:32:32-p272:64:64-i64:64-i128:128-f80:128-n8:16:32:64-S128"
target triple = "x86_64-pc-linux-gnu"

%struct.archive_match = type { %struct.archive, i32, i32, %struct.match_list, %struct.match_list, i64, i32, i64, i64, i32, i64, i64, i32, i64, i64, i32, i64, i64, %struct.archive_rb_tree, %struct.entry_list, %struct.id_array, %struct.id_array, %struct.match_list, %struct.match_list }
%struct.archive = type { i32, i32, ptr, i32, ptr, i32, i32, ptr, %struct.archive_string, ptr, i32, i32, ptr, ptr, i64, i64, i64, i8, i64 }
%struct.archive_string = type { ptr, i64, i64 }
%struct.archive_rb_tree = type { ptr, ptr }
%struct.entry_list = type { ptr, ptr, i32 }
%struct.id_array = type { i64, i64, ptr }
%struct.match_list = type { ptr, ptr, i32, i32, ptr, i32 }

@.str.11 = private unnamed_addr constant [42 x i8] c"archive_match_include_pattern_from_file_w\00", align 1

; Function Attrs: nounwind uwtable
define dso_local i32 @archive_match_include_pattern_from_file_w(ptr noundef %0, ptr noundef %1, i32 noundef %2) #0 {
  %4 = alloca i32, align 4
  %5 = alloca ptr, align 8
  %6 = alloca ptr, align 8
  %7 = alloca i32, align 4
  %8 = alloca ptr, align 8
  %9 = alloca i32, align 4
  %10 = alloca i32, align 4
  store ptr %0, ptr %5, align 8, !tbaa !41
  store ptr %1, ptr %6, align 8, !tbaa !96
  store i32 %2, ptr %7, align 4, !tbaa !43
  call void @llvm.lifetime.start.p0(i64 8, ptr %8) #9
  br label %11

11:                                               ; preds = %3
  call void @llvm.lifetime.start.p0(i64 4, ptr %9) #9
  %12 = load ptr, ptr %5, align 8, !tbaa !41
  %13 = call i32 @__archive_check_magic(ptr noundef %12, i32 noundef 212668873, i32 noundef 1, ptr noundef @.str.11)
  store i32 %13, ptr %9, align 4, !tbaa !43
  %14 = load i32, ptr %9, align 4, !tbaa !43
  %15 = icmp eq i32 %14, -30
  br i1 %15, label %16, label %17

16:                                               ; preds = %11
  store i32 -30, ptr %4, align 4
  store i32 1, ptr %10, align 4
  br label %18

17:                                               ; preds = %11
  store i32 0, ptr %10, align 4
  br label %18

18:                                               ; preds = %17, %16
  call void @llvm.lifetime.end.p0(i64 4, ptr %9) #9
  %19 = load i32, ptr %10, align 4
  switch i32 %19, label %30 [
    i32 0, label %20
  ]

20:                                               ; preds = %18
  br label %21

21:                                               ; preds = %20
  br label %22

22:                                               ; preds = %21
  %23 = load ptr, ptr %5, align 8, !tbaa !41
  store ptr %23, ptr %8, align 8, !tbaa !4
  %24 = load ptr, ptr %8, align 8, !tbaa !4
  %25 = load ptr, ptr %8, align 8, !tbaa !4
  %26 = getelementptr inbounds nuw %struct.archive_match, ptr %25, i32 0, i32 4
  %27 = load ptr, ptr %6, align 8, !tbaa !96
  %28 = load i32, ptr %7, align 4, !tbaa !43
  %29 = call i32 @add_pattern_from_file(ptr noundef %24, ptr noundef %26, i32 noundef 0, ptr noundef %27, i32 noundef %28)
  store i32 %29, ptr %4, align 4
  store i32 1, ptr %10, align 4
  br label %30

30:                                               ; preds = %22, %18
  call void @llvm.lifetime.end.p0(i64 8, ptr %8) #9
  %31 = load i32, ptr %4, align 4
  ret i32 %31
}