; Function Attrs: nounwind uwtable
define dso_local i32 @archive_match_include_pattern_from_file_w(ptr noundef %0, ptr noundef %1, i32 noundef %2) local_unnamed_addr #0 {
  %4 = tail call i32 @__archive_check_magic(ptr noundef %0, i32 noundef 212668873, i32 noundef 1, ptr noundef nonnull @.str.11) #14
  %.not = icmp eq i32 %4, -30
  br i1 %.not, label %8, label %5

5:                                                ; preds = %3
  %6 = getelementptr inbounds nuw i8, ptr %0, i64 192
  %7 = tail call fastcc i32 @add_pattern_from_file(ptr noundef %0, ptr noundef nonnull %6, i32 noundef 0, ptr noundef %1, i32 noundef %2)
  br label %8

8:                                                ; preds = %3, %5
  %.1 = phi i32 [ %7, %5 ], [ -30, %3 ]
  ret i32 %.1
}